target datalayout = "e-m:e-p270:32:32-p271:32:32-p272:64:64-i64:64-i128:128-f80:128-n8:16:32:64-S128"
target triple = "x86_64-pc-linux-gnu"

%struct.VP8EncIterator = type { i32, i32, ptr, ptr, ptr, ptr, ptr, ptr, ptr, ptr, ptr, [37 x i8], ptr, i32, [9 x i32], [9 x i32], [4 x [3 x i64]], i64, i64, ptr, i32, i32, i32, i32, [2 x [2 x i8]], ptr, ptr, ptr, ptr, ptr, ptr, [88 x i8], [3359 x i8] }
%struct.VP8Encoder = type { ptr, ptr, %struct.VP8EncFilterHeader, %struct.VP8EncSegmentHeader, i32, i32, i32, i32, i32, %struct.VP8BitWriter, [8 x %struct.VP8BitWriter], %struct.VP8TBuffer, i32, i32, ptr, i32, %struct.WebPWorker, [4 x %struct.VP8SegmentInfo], i32, i32, i32, i32, i32, i32, i32, i32, %struct.VP8EncProba, [4 x i64], i64, i32, [3 x [4 x i32]], [3 x i32], i32, i32, i32, i32, i32, i32, i32, ptr, ptr, ptr, ptr, ptr, ptr, ptr }
%struct.VP8EncFilterHeader = type { i32, i32, i32, i32 }
%struct.VP8EncSegmentHeader = type { i32, i32, i32 }
%struct.VP8BitWriter = type { i32, i32, i32, i32, ptr, i64, i64, i32 }
%struct.VP8TBuffer = type { ptr, ptr, ptr, i32, i32, i32 }
%struct.WebPWorker = type { ptr, i32, ptr, ptr, ptr, i32 }
%struct.VP8SegmentInfo = type { %struct.VP8Matrix, %struct.VP8Matrix, %struct.VP8Matrix, i32, i32, i32, i32, i32, i32, i32, i32, i32, i32, i32, i32, i32, i32, i32, i64 }
%struct.VP8Matrix = type { [16 x i16], [16 x i16], [16 x i32], [16 x i32], [16 x i16] }
%struct.VP8EncProba = type { [3 x i8], i8, [4 x [8 x [3 x [11 x i8]]]], [4 x [8 x [3 x [11 x i32]]]], [4 x [8 x [3 x [68 x i16]]]], [4 x [16 x [3 x ptr]]], i32, i32, i32 }

; Function Attrs: nounwind uwtable
define hidden void @VP8IteratorSaveBoundary(ptr noundef %0) #0 {
  %2 = alloca ptr, align 8
  %3 = alloca ptr, align 8
  %4 = alloca i32, align 4
  %5 = alloca i32, align 4
  %6 = alloca ptr, align 8
  %7 = alloca ptr, align 8
  %8 = alloca i32, align 4
  store ptr %0, ptr %2, align 8, !tbaa !3
  call void @llvm.lifetime.start.p0(i64 8, ptr %3) #6
  %9 = load ptr, ptr %2, align 8, !tbaa !3
  %10 = getelementptr inbounds nuw %struct.VP8EncIterator, ptr %9, i32 0, i32 6
  %11 = load ptr, ptr %10, align 8, !tbaa !9
  store ptr %11, ptr %3, align 8, !tbaa !17
  call void @llvm.lifetime.start.p0(i64 4, ptr %4) #6
  %12 = load ptr, ptr %2, align 8, !tbaa !3
  %13 = getelementptr inbounds nuw %struct.VP8EncIterator, ptr %12, i32 0, i32 0
  %14 = load i32, ptr %13, align 8, !tbaa !18
  store i32 %14, ptr %4, align 4, !tbaa !7
  call void @llvm.lifetime.start.p0(i64 4, ptr %5) #6
  %15 = load ptr, ptr %2, align 8, !tbaa !3
  %16 = getelementptr inbounds nuw %struct.VP8EncIterator, ptr %15, i32 0, i32 1
  %17 = load i32, ptr %16, align 4, !tbaa !19
  store i32 %17, ptr %5, align 4, !tbaa !7
  call void @llvm.lifetime.start.p0(i64 8, ptr %6) #6
  %18 = load ptr, ptr %2, align 8, !tbaa !3
  %19 = getelementptr inbounds nuw %struct.VP8EncIterator, ptr %18, i32 0, i32 3
  %20 = load ptr, ptr %19, align 8, !tbaa !54
  %21 = getelementptr inbounds i8, ptr %20, i64 0
  store ptr %21, ptr %6, align 8, !tbaa !68
  call void @llvm.lifetime.start.p0(i64 8, ptr %7) #6
  %22 = load ptr, ptr %2, align 8, !tbaa !3
  %23 = getelementptr inbounds nuw %struct.VP8EncIterator, ptr %22, i32 0, i32 3
  %24 = load ptr, ptr %23, align 8, !tbaa !54
  %25 = getelementptr inbounds i8, ptr %24, i64 16
  store ptr %25, ptr %7, align 8, !tbaa !68
  %26 = load i32, ptr %4, align 4, !tbaa !7
  %27 = load ptr, ptr %3, align 8, !tbaa !17
  %28 = getelementptr inbounds nuw %struct.VP8Encoder, ptr %27, i32 0, i32 5
  %29 = load i32, ptr %28, align 8, !tbaa !40
  %30 = sub nsw i32 %29, 1
  %31 = icmp slt i32 %26, %30
  br i1 %31, label %32, label %115

32:                                               ; preds = %1
  call void @llvm.lifetime.start.p0(i64 4, ptr %8) #6
  store i32 0, ptr %8, align 4, !tbaa !7
  br label %33

33:                                               ; preds = %50, %32
  %34 = load i32, ptr %8, align 4, !tbaa !7
  %35 = icmp slt i32 %34, 16
  br i1 %35, label %36, label %53

36:                                               ; preds = %33
  %37 = load ptr, ptr %6, align 8, !tbaa !68
  %38 = load i32, ptr %8, align 4, !tbaa !7
  %39 = mul nsw i32 %38, 32
  %40 = add nsw i32 15, %39
  %41 = sext i32 %40 to i64
  %42 = getelementptr inbounds i8, ptr %37, i64 %41
  %43 = load i8, ptr %42, align 1, !tbaa !47
  %44 = load ptr, ptr %2, align 8, !tbaa !3
  %45 = getelementptr inbounds nuw %struct.VP8EncIterator, ptr %44, i32 0, i32 26
  %46 = load ptr, ptr %45, align 8, !tbaa !49
  %47 = load i32, ptr %8, align 4, !tbaa !7
  %48 = sext i32 %47 to i64
  %49 = getelementptr inbounds i8, ptr %46, i64 %48
  store i8 %43, ptr %49, align 1, !tbaa !47
  br label %50

50:                                               ; preds = %36
  %51 = load i32, ptr %8, align 4, !tbaa !7
  %52 = add nsw i32 %51, 1
  store i32 %52, ptr %8, align 4, !tbaa !7
  br label %33, !llvm.loop !88

53:                                               ; preds = %33
  store i32 0, ptr %8, align 4, !tbaa !7
  br label %54

54:                                               ; preds = %84, %53
  %55 = load i32, ptr %8, align 4, !tbaa !7
  %56 = icmp slt i32 %55, 8
  br i1 %56, label %57, label %87

57:                                               ; preds = %54
  %58 = load ptr, ptr %7, align 8, !tbaa !68
  %59 = load i32, ptr %8, align 4, !tbaa !7
  %60 = mul nsw i32 %59, 32
  %61 = add nsw i32 7, %60
  %62 = sext i32 %61 to i64
  %63 = getelementptr inbounds i8, ptr %58, i64 %62
  %64 = load i8, ptr %63, align 1, !tbaa !47
  %65 = load ptr, ptr %2, align 8, !tbaa !3
  %66 = getelementptr inbounds nuw %struct.VP8EncIterator, ptr %65, i32 0, i32 27
  %67 = load ptr, ptr %66, align 8, !tbaa !48
  %68 = load i32, ptr %8, align 4, !tbaa !7
  %69 = sext i32 %68 to i64
  %70 = getelementptr inbounds i8, ptr %67, i64 %69
  store i8 %64, ptr %70, align 1, !tbaa !47
  %71 = load ptr, ptr %7, align 8, !tbaa !68
  %72 = load i32, ptr %8, align 4, !tbaa !7
  %73 = mul nsw i32 %72, 32
  %74 = add nsw i32 15, %73
  %75 = sext i32 %74 to i64
  %76 = getelementptr inbounds i8, ptr %71, i64 %75
  %77 = load i8, ptr %76, align 1, !tbaa !47
  %78 = load ptr, ptr %2, align 8, !tbaa !3
  %79 = getelementptr inbounds nuw %struct.VP8EncIterator, ptr %78, i32 0, i32 28
  %80 = load ptr, ptr %79, align 8, !tbaa !46
  %81 = load i32, ptr %8, align 4, !tbaa !7
  %82 = sext i32 %81 to i64
  %83 = getelementptr inbounds i8, ptr %80, i64 %82
  store i8 %77, ptr %83, align 1, !tbaa !47
  br label %84

84:                                               ; preds = %57
  %85 = load i32, ptr %8, align 4, !tbaa !7
  %86 = add nsw i32 %85, 1
  store i32 %86, ptr %8, align 4, !tbaa !7
  br label %54, !llvm.loop !89

87:                                               ; preds = %54
  %88 = load ptr, ptr %2, align 8, !tbaa !3
  %89 = getelementptr inbounds nuw %struct.VP8EncIterator, ptr %88, i32 0, i32 29
  %90 = load ptr, ptr %89, align 8, !tbaa !43
  %91 = getelementptr inbounds i8, ptr %90, i64 15
  %92 = load i8, ptr %91, align 1, !tbaa !47
  %93 = load ptr, ptr %2, align 8, !tbaa !3
  %94 = getelementptr inbounds nuw %struct.VP8EncIterator, ptr %93, i32 0, i32 26
  %95 = load ptr, ptr %94, align 8, !tbaa !49
  %96 = getelementptr inbounds i8, ptr %95, i64 -1
  store i8 %92, ptr %96, align 1, !tbaa !47
  %97 = load ptr, ptr %2, align 8, !tbaa !3
  %98 = getelementptr inbounds nuw %struct.VP8EncIterator, ptr %97, i32 0, i32 30
  %99 = load ptr, ptr %98, align 8, !tbaa !45
  %100 = getelementptr inbounds i8, ptr %99, i64 7
  %101 = load i8, ptr %100, align 1, !tbaa !47
  %102 = load ptr, ptr %2, align 8, !tbaa !3
  %103 = getelementptr inbounds nuw %struct.VP8EncIterator, ptr %102, i32 0, i32 27
  %104 = load ptr, ptr %103, align 8, !tbaa !48
  %105 = getelementptr inbounds i8, ptr %104, i64 -1
  store i8 %101, ptr %105, align 1, !tbaa !47
  %106 = load ptr, ptr %2, align 8, !tbaa !3
  %107 = getelementptr inbounds nuw %struct.VP8EncIterator, ptr %106, i32 0, i32 30
  %108 = load ptr, ptr %107, align 8, !tbaa !45
  %109 = getelementptr inbounds i8, ptr %108, i64 15
  %110 = load i8, ptr %109, align 1, !tbaa !47
  %111 = load ptr, ptr %2, align 8, !tbaa !3
  %112 = getelementptr inbounds nuw %struct.VP8EncIterator, ptr %111, i32 0, i32 28
  %113 = load ptr, ptr %112, align 8, !tbaa !46
  %114 = getelementptr inbounds i8, ptr %113, i64 -1
  store i8 %110, ptr %114, align 1, !tbaa !47
  call void @llvm.lifetime.end.p0(i64 4, ptr %8) #6
  br label %115

115:                                              ; preds = %87, %1
  %116 = load i32, ptr %5, align 4, !tbaa !7
  %117 = load ptr, ptr %3, align 8, !tbaa !17
  %118 = getelementptr inbounds nuw %struct.VP8Encoder, ptr %117, i32 0, i32 6
  %119 = load i32, ptr %118, align 4, !tbaa !62
  %120 = sub nsw i32 %119, 1
  %121 = icmp slt i32 %116, %120
  br i1 %121, label %122, label %133

122:                                              ; preds = %115
  %123 = load ptr, ptr %2, align 8, !tbaa !3
  %124 = getelementptr inbounds nuw %struct.VP8EncIterator, ptr %123, i32 0, i32 29
  %125 = load ptr, ptr %124, align 8, !tbaa !43
  %126 = load ptr, ptr %6, align 8, !tbaa !68
  %127 = getelementptr inbounds i8, ptr %126, i64 480
  call void @llvm.memcpy.p0.p0.i64(ptr align 1 %125, ptr align 1 %127, i64 16, i1 false)
  %128 = load ptr, ptr %2, align 8, !tbaa !3
  %129 = getelementptr inbounds nuw %struct.VP8EncIterator, ptr %128, i32 0, i32 30
  %130 = load ptr, ptr %129, align 8, !tbaa !45
  %131 = load ptr, ptr %7, align 8, !tbaa !68
  %132 = getelementptr inbounds i8, ptr %131, i64 224
  call void @llvm.memcpy.p0.p0.i64(ptr align 1 %130, ptr align 1 %132, i64 16, i1 false)
  br label %133

133:                                              ; preds = %122, %115
  call void @llvm.lifetime.end.p0(i64 8, ptr %7) #6
  call void @llvm.lifetime.end.p0(i64 8, ptr %6) #6
  call void @llvm.lifetime.end.p0(i64 4, ptr %5) #6
  call void @llvm.lifetime.end.p0(i64 4, ptr %4) #6
  call void @llvm.lifetime.end.p0(i64 8, ptr %3) #6
  ret void
}