; Function Attrs: nofree norecurse nosync nounwind memory(readwrite, inaccessiblemem: none) uwtable
define hidden void @VP8IteratorSaveBoundary(ptr noundef readonly captures(none) %0) local_unnamed_addr #5 {
  %2 = getelementptr inbounds nuw i8, ptr %0, i64 40
  %3 = load ptr, ptr %2, align 8, !tbaa !3
  %4 = load i32, ptr %0, align 8, !tbaa !15
  %5 = getelementptr inbounds nuw i8, ptr %0, i64 4
  %6 = load i32, ptr %5, align 4, !tbaa !16
  %7 = getelementptr inbounds nuw i8, ptr %0, i64 16
  %8 = load ptr, ptr %7, align 8, !tbaa !52
  %9 = getelementptr inbounds nuw i8, ptr %8, i64 16
  %10 = getelementptr inbounds nuw i8, ptr %3, i64 48
  %11 = load i32, ptr %10, align 8, !tbaa !37
  %12 = add nsw i32 %11, -1
  %13 = icmp slt i32 %4, %12
  br i1 %13, label %.preheader34, label %54

.preheader34:                                     ; preds = %1
  %14 = getelementptr inbounds nuw i8, ptr %0, i64 360
  br label %17

.preheader:                                       ; preds = %17
  %15 = getelementptr inbounds nuw i8, ptr %0, i64 368
  %16 = getelementptr inbounds nuw i8, ptr %0, i64 376
  br label %24

17:                                               ; preds = %.preheader34, %17
  %indvars.iv = phi i64 [ 0, %.preheader34 ], [ %indvars.iv.next, %17 ]
  %18 = shl nuw nsw i64 %indvars.iv, 5
  %19 = or disjoint i64 %18, 15
  %20 = getelementptr inbounds nuw i8, ptr %8, i64 %19
  %21 = load i8, ptr %20, align 1, !tbaa !44
  %22 = load ptr, ptr %14, align 8, !tbaa !46
  %23 = getelementptr inbounds nuw i8, ptr %22, i64 %indvars.iv
  store i8 %21, ptr %23, align 1, !tbaa !44
  %indvars.iv.next = add nuw nsw i64 %indvars.iv, 1
  %exitcond.not = icmp eq i64 %indvars.iv.next, 16
  br i1 %exitcond.not, label %.preheader, label %17, !llvm.loop !83

24:                                               ; preds = %.preheader, %24
  %indvars.iv38 = phi i64 [ 0, %.preheader ], [ %indvars.iv.next39, %24 ]
  %25 = shl nuw nsw i64 %indvars.iv38, 5
  %26 = or disjoint i64 %25, 7
  %27 = getelementptr inbounds nuw i8, ptr %9, i64 %26
  %28 = load i8, ptr %27, align 1, !tbaa !44
  %29 = load ptr, ptr %15, align 8, !tbaa !45
  %30 = getelementptr inbounds nuw i8, ptr %29, i64 %indvars.iv38
  store i8 %28, ptr %30, align 1, !tbaa !44
  %31 = or disjoint i64 %25, 15
  %32 = getelementptr inbounds nuw i8, ptr %9, i64 %31
  %33 = load i8, ptr %32, align 1, !tbaa !44
  %34 = load ptr, ptr %16, align 8, !tbaa !43
  %35 = getelementptr inbounds nuw i8, ptr %34, i64 %indvars.iv38
  store i8 %33, ptr %35, align 1, !tbaa !44
  %indvars.iv.next39 = add nuw nsw i64 %indvars.iv38, 1
  %exitcond41.not = icmp eq i64 %indvars.iv.next39, 8
  br i1 %exitcond41.not, label %36, label %24, !llvm.loop !84

36:                                               ; preds = %24
  %37 = getelementptr inbounds nuw i8, ptr %0, i64 384
  %38 = load ptr, ptr %37, align 8, !tbaa !40
  %39 = getelementptr inbounds nuw i8, ptr %38, i64 15
  %40 = load i8, ptr %39, align 1, !tbaa !44
  %41 = load ptr, ptr %14, align 8, !tbaa !46
  %42 = getelementptr inbounds i8, ptr %41, i64 -1
  store i8 %40, ptr %42, align 1, !tbaa !44
  %43 = getelementptr inbounds nuw i8, ptr %0, i64 392
  %44 = load ptr, ptr %43, align 8, !tbaa !42
  %45 = getelementptr inbounds nuw i8, ptr %44, i64 7
  %46 = load i8, ptr %45, align 1, !tbaa !44
  %47 = load ptr, ptr %15, align 8, !tbaa !45
  %48 = getelementptr inbounds i8, ptr %47, i64 -1
  store i8 %46, ptr %48, align 1, !tbaa !44
  %49 = load ptr, ptr %43, align 8, !tbaa !42
  %50 = getelementptr inbounds nuw i8, ptr %49, i64 15
  %51 = load i8, ptr %50, align 1, !tbaa !44
  %52 = load ptr, ptr %16, align 8, !tbaa !43
  %53 = getelementptr inbounds i8, ptr %52, i64 -1
  store i8 %51, ptr %53, align 1, !tbaa !44
  br label %54

54:                                               ; preds = %36, %1
  %55 = getelementptr inbounds nuw i8, ptr %3, i64 52
  %56 = load i32, ptr %55, align 4, !tbaa !60
  %57 = add nsw i32 %56, -1
  %58 = icmp slt i32 %6, %57
  br i1 %58, label %59, label %66

59:                                               ; preds = %54
  %60 = getelementptr inbounds nuw i8, ptr %0, i64 384
  %61 = load ptr, ptr %60, align 8, !tbaa !40
  %62 = getelementptr inbounds nuw i8, ptr %8, i64 480
  tail call void @llvm.memcpy.p0.p0.i64(ptr noundef nonnull align 1 dereferenceable(16) %61, ptr noundef nonnull align 1 dereferenceable(16) %62, i64 16, i1 false)
  %63 = getelementptr inbounds nuw i8, ptr %0, i64 392
  %64 = load ptr, ptr %63, align 8, !tbaa !42
  %65 = getelementptr inbounds nuw i8, ptr %8, i64 240
  tail call void @llvm.memcpy.p0.p0.i64(ptr noundef nonnull align 1 dereferenceable(16) %64, ptr noundef nonnull align 1 dereferenceable(16) %65, i64 16, i1 false)
  br label %66

66:                                               ; preds = %59, %54
  ret void
}